target datalayout = "e-m:e-p270:32:32-p271:32:32-p272:64:64-i64:64-i128:128-f80:128-n8:16:32:64-S128"
target triple = "x86_64-pc-linux-gnu"

%class.QString = type { %struct.QArrayDataPointer }
%struct.QArrayDataPointer = type { ptr, ptr, i64 }
%class.FollowStreamDialog = type <{ %class.WiresharkDialog.base, [3 x i8], ptr, ptr, ptr, ptr, ptr, ptr, %struct._follow_info, ptr, %class.QString, %class.QString, %class.QString, i32, i32, i32, i32, i32, i8, [3 x i8], %struct.nstime_t, i32, i8, i8, [2 x i8], i32, [4 x i8] }>
%class.WiresharkDialog.base = type <{ %class.GeometryStateDialog, ptr, i8, [7 x i8], %class.QString, %class.QList, i32, i8 }>
%class.GeometryStateDialog = type { %class.QDialog, %class.QString, ptr }
%class.QDialog = type { %class.QWidget }
%class.QWidget = type { %class.QObject, %class.QPaintDevice.base, ptr }
%class.QObject = type { ptr, %class.QScopedPointer }
%class.QScopedPointer = type { ptr }
%class.QPaintDevice.base = type <{ ptr, i16 }>
%class.QList = type { %struct.QArrayDataPointer.0 }
%struct.QArrayDataPointer.0 = type { ptr, ptr, i64 }
%struct._follow_info = type { i32, ptr, ptr, [2 x i32], [2 x i32], [2 x ptr], i32, i32, %struct._address, %struct._address, ptr, i64 }
%struct._address = type { i32, i32, ptr, ptr }
%struct.nstime_t = type { i64, i32 }

; Function Attrs: mustprogress null_pointer_is_valid sspstrong uwtable
define void @_ZN18FollowStreamDialog31cbDirectionsCurrentIndexChangedEi(ptr noundef align 8 dereferenceable_or_null(452) %0, i32 noundef %1) #3 align 2 {
  %3 = alloca ptr, align 8
  %4 = alloca i32, align 4
  store ptr %0, ptr %3, align 8
  store i32 %1, ptr %4, align 4
  %5 = load ptr, ptr %3, align 8
  %6 = load i32, ptr %4, align 4
  switch i32 %6, label %16 [
    i32 0, label %7
    i32 1, label %10
    i32 2, label %13
  ]

7:                                                ; preds = %2
  %8 = getelementptr inbounds nuw %class.FollowStreamDialog, ptr %5, i32 0, i32 8
  %9 = getelementptr inbounds nuw %struct._follow_info, ptr %8, i32 0, i32 0
  store i32 2, ptr %9, align 8
  br label %17

10:                                               ; preds = %2
  %11 = getelementptr inbounds nuw %class.FollowStreamDialog, ptr %5, i32 0, i32 8
  %12 = getelementptr inbounds nuw %struct._follow_info, ptr %11, i32 0, i32 0
  store i32 1, ptr %12, align 8
  br label %17

13:                                               ; preds = %2
  %14 = getelementptr inbounds nuw %class.FollowStreamDialog, ptr %5, i32 0, i32 8
  %15 = getelementptr inbounds nuw %struct._follow_info, ptr %14, i32 0, i32 0
  store i32 0, ptr %15, align 8
  br label %17

16:                                               ; preds = %2
  br label %18

17:                                               ; preds = %13, %10, %7
  call void @_ZN18FollowStreamDialog10readStreamEv(ptr noundef align 8 dereferenceable_or_null(452) %5)
  br label %18

18:                                               ; preds = %17, %16
  ret void
}