; Function Attrs: mustprogress null_pointer_is_valid sspstrong uwtable
define void @_ZN18FollowStreamDialog31cbDirectionsCurrentIndexChangedEi(ptr noundef align 8 dereferenceable_or_null(452) %0, i32 noundef %1) #2 align 2 {
  %3 = icmp ult i32 %1, 3
  br i1 %3, label %switch.lookup, label %5

switch.lookup:                                    ; preds = %2
  %switch.offset = sub nuw nsw i32 2, %1
  %4 = getelementptr inbounds nuw i8, ptr %0, i64 192
  store i32 %switch.offset, ptr %4, align 8
  tail call void @_ZN18FollowStreamDialog10readStreamEv(ptr noundef align 8 dereferenceable_or_null(452) %0)
  br label %5

5:                                                ; preds = %2, %switch.lookup
  ret void
}